target datalayout = "e-m:e-p270:32:32-p271:32:32-p272:64:64-i64:64-i128:128-f80:128-n8:16:32:64-S128"
target triple = "x86_64-pc-linux-gnu"

@libctx = internal global ptr null, align 8
@.str.14 = private unnamed_addr constant [29 x i8] c"../openssl/test/sslapitest.c\00", align 1
@cert = internal global ptr null, align 8
@privkey = internal global ptr null, align 8
@.str.157 = private unnamed_addr constant [67 x i8] c"create_ssl_objects(sctx, cctx, &serverssl, &clientssl, NULL, NULL)\00", align 1
@.str.158 = private unnamed_addr constant [60 x i8] c"create_ssl_connection(serverssl, clientssl, SSL_ERROR_NONE)\00", align 1
@.str.174 = private unnamed_addr constant [8 x i8] c"written\00", align 1
@.str.210 = private unnamed_addr constant [116 x i8] c"create_ssl_ctx_pair(libctx, TLS_server_method(), TLS_client_method(), TLS1_VERSION, 0, &sctx, &cctx, cert, privkey)\00", align 1
@.str.218 = private unnamed_addr constant [2 x i8] c"0\00", align 1
@.str.273 = private unnamed_addr constant [12 x i8] c"sizeof(buf)\00", align 1
@.str.429 = private unnamed_addr constant [10 x i8] c"readbytes\00", align 1
@.str.442 = private unnamed_addr constant [53 x i8] c"SSL_read_ex(clientssl, buf, sizeof(buf), &readbytes)\00", align 1
@__const.test_ssl_pending.msg = private unnamed_addr constant [15 x i8] c"A test message\00", align 1
@.str.844 = private unnamed_addr constant [119 x i8] c"create_ssl_ctx_pair(libctx, DTLS_server_method(), DTLS_client_method(), DTLS1_VERSION, 0, &sctx, &cctx, cert, privkey)\00", align 1
@.str.845 = private unnamed_addr constant [23 x i8] c"SSL_pending(clientssl)\00", align 1
@.str.846 = private unnamed_addr constant [27 x i8] c"SSL_has_pending(clientssl)\00", align 1
@.str.847 = private unnamed_addr constant [23 x i8] c"SSL_pending(serverssl)\00", align 1
@.str.848 = private unnamed_addr constant [27 x i8] c"SSL_has_pending(serverssl)\00", align 1
@.str.849 = private unnamed_addr constant [52 x i8] c"SSL_write_ex(serverssl, msg, sizeof(msg), &written)\00", align 1
@.str.850 = private unnamed_addr constant [12 x i8] c"sizeof(msg)\00", align 1
@.str.851 = private unnamed_addr constant [27 x i8] c"(int)(written - readbytes)\00", align 1

; Function Attrs: nounwind uwtable
define internal i32 @test_ssl_pending(i32 noundef %0) #0 {
  %2 = alloca i32, align 4
  %3 = alloca ptr, align 8
  %4 = alloca ptr, align 8
  %5 = alloca ptr, align 8
  %6 = alloca ptr, align 8
  %7 = alloca i32, align 4
  %8 = alloca [15 x i8], align 1
  %9 = alloca [5 x i8], align 1
  %10 = alloca i64, align 8
  %11 = alloca i64, align 8
  store i32 %0, ptr %2, align 4, !tbaa !13
  call void @llvm.lifetime.start.p0(i64 8, ptr %3) #9
  store ptr null, ptr %3, align 8, !tbaa !19
  call void @llvm.lifetime.start.p0(i64 8, ptr %4) #9
  store ptr null, ptr %4, align 8, !tbaa !19
  call void @llvm.lifetime.start.p0(i64 8, ptr %5) #9
  store ptr null, ptr %5, align 8, !tbaa !21
  call void @llvm.lifetime.start.p0(i64 8, ptr %6) #9
  store ptr null, ptr %6, align 8, !tbaa !21
  call void @llvm.lifetime.start.p0(i64 4, ptr %7) #9
  store i32 0, ptr %7, align 4, !tbaa !13
  call void @llvm.lifetime.start.p0(i64 15, ptr %8) #9
  call void @llvm.memcpy.p0.p0.i64(ptr align 1 %8, ptr align 1 @__const.test_ssl_pending.msg, i64 15, i1 false)
  call void @llvm.lifetime.start.p0(i64 5, ptr %9) #9
  call void @llvm.lifetime.start.p0(i64 8, ptr %10) #9
  call void @llvm.lifetime.start.p0(i64 8, ptr %11) #9
  %12 = load i32, ptr %2, align 4, !tbaa !13
  %13 = icmp eq i32 %12, 0
  br i1 %13, label %14, label %27

14:                                               ; preds = %1
  %15 = load ptr, ptr @libctx, align 8, !tbaa !4
  %16 = call ptr @TLS_server_method()
  %17 = call ptr @TLS_client_method()
  %18 = load ptr, ptr @cert, align 8, !tbaa !11
  %19 = load ptr, ptr @privkey, align 8, !tbaa !11
  %20 = call i32 @create_ssl_ctx_pair(ptr noundef %15, ptr noundef %16, ptr noundef %17, i32 noundef 769, i32 noundef 0, ptr noundef %4, ptr noundef %3, ptr noundef %18, ptr noundef %19)
  %21 = icmp ne i32 %20, 0
  %22 = zext i1 %21 to i32
  %23 = call i32 @test_true(ptr noundef @.str.14, i32 noundef 8070, ptr noundef @.str.210, i32 noundef %22)
  %24 = icmp ne i32 %23, 0
  br i1 %24, label %26, label %25

25:                                               ; preds = %14
  br label %123

26:                                               ; preds = %14
  br label %40

27:                                               ; preds = %1
  %28 = load ptr, ptr @libctx, align 8, !tbaa !4
  %29 = call ptr @DTLS_server_method()
  %30 = call ptr @DTLS_client_method()
  %31 = load ptr, ptr @cert, align 8, !tbaa !11
  %32 = load ptr, ptr @privkey, align 8, !tbaa !11
  %33 = call i32 @create_ssl_ctx_pair(ptr noundef %28, ptr noundef %29, ptr noundef %30, i32 noundef 65279, i32 noundef 0, ptr noundef %4, ptr noundef %3, ptr noundef %31, ptr noundef %32)
  %34 = icmp ne i32 %33, 0
  %35 = zext i1 %34 to i32
  %36 = call i32 @test_true(ptr noundef @.str.14, i32 noundef 8077, ptr noundef @.str.844, i32 noundef %35)
  %37 = icmp ne i32 %36, 0
  br i1 %37, label %39, label %38

38:                                               ; preds = %27
  br label %123

39:                                               ; preds = %27
  br label %40

40:                                               ; preds = %39, %26
  %41 = load ptr, ptr %4, align 8, !tbaa !19
  %42 = load ptr, ptr %3, align 8, !tbaa !19
  %43 = call i32 @create_ssl_objects(ptr noundef %41, ptr noundef %42, ptr noundef %6, ptr noundef %5, ptr noundef null, ptr noundef null)
  %44 = icmp ne i32 %43, 0
  %45 = zext i1 %44 to i32
  %46 = call i32 @test_true(ptr noundef @.str.14, i32 noundef 8101, ptr noundef @.str.157, i32 noundef %45)
  %47 = icmp ne i32 %46, 0
  br i1 %47, label %48, label %56

48:                                               ; preds = %40
  %49 = load ptr, ptr %6, align 8, !tbaa !21
  %50 = load ptr, ptr %5, align 8, !tbaa !21
  %51 = call i32 @create_ssl_connection(ptr noundef %49, ptr noundef %50, i32 noundef 0)
  %52 = icmp ne i32 %51, 0
  %53 = zext i1 %52 to i32
  %54 = call i32 @test_true(ptr noundef @.str.14, i32 noundef 8103, ptr noundef @.str.158, i32 noundef %53)
  %55 = icmp ne i32 %54, 0
  br i1 %55, label %57, label %56

56:                                               ; preds = %48, %40
  br label %123

57:                                               ; preds = %48
  %58 = load ptr, ptr %5, align 8, !tbaa !21
  %59 = call i32 @SSL_pending(ptr noundef %58)
  %60 = call i32 @test_int_eq(ptr noundef @.str.14, i32 noundef 8106, ptr noundef @.str.845, ptr noundef @.str.218, i32 noundef %59, i32 noundef 0)
  %61 = icmp ne i32 %60, 0
  br i1 %61, label %62, label %121

62:                                               ; preds = %57
  %63 = load ptr, ptr %5, align 8, !tbaa !21
  %64 = call i32 @SSL_has_pending(ptr noundef %63)
  %65 = icmp ne i32 %64, 0
  %66 = zext i1 %65 to i32
  %67 = call i32 @test_false(ptr noundef @.str.14, i32 noundef 8107, ptr noundef @.str.846, i32 noundef %66)
  %68 = icmp ne i32 %67, 0
  br i1 %68, label %69, label %121

69:                                               ; preds = %62
  %70 = load ptr, ptr %6, align 8, !tbaa !21
  %71 = call i32 @SSL_pending(ptr noundef %70)
  %72 = call i32 @test_int_eq(ptr noundef @.str.14, i32 noundef 8108, ptr noundef @.str.847, ptr noundef @.str.218, i32 noundef %71, i32 noundef 0)
  %73 = icmp ne i32 %72, 0
  br i1 %73, label %74, label %121

74:                                               ; preds = %69
  %75 = load ptr, ptr %6, align 8, !tbaa !21
  %76 = call i32 @SSL_has_pending(ptr noundef %75)
  %77 = icmp ne i32 %76, 0
  %78 = zext i1 %77 to i32
  %79 = call i32 @test_false(ptr noundef @.str.14, i32 noundef 8109, ptr noundef @.str.848, i32 noundef %78)
  %80 = icmp ne i32 %79, 0
  br i1 %80, label %81, label %121

81:                                               ; preds = %74
  %82 = load ptr, ptr %6, align 8, !tbaa !21
  %83 = getelementptr inbounds [15 x i8], ptr %8, i64 0, i64 0
  %84 = call i32 @SSL_write_ex(ptr noundef %82, ptr noundef %83, i64 noundef 15, ptr noundef %10)
  %85 = icmp ne i32 %84, 0
  %86 = zext i1 %85 to i32
  %87 = call i32 @test_true(ptr noundef @.str.14, i32 noundef 8110, ptr noundef @.str.849, i32 noundef %86)
  %88 = icmp ne i32 %87, 0
  br i1 %88, label %89, label %121

89:                                               ; preds = %81
  %90 = load i64, ptr %10, align 8, !tbaa !17
  %91 = call i32 @test_size_t_eq(ptr noundef @.str.14, i32 noundef 8111, ptr noundef @.str.174, ptr noundef @.str.850, i64 noundef %90, i64 noundef 15)
  %92 = icmp ne i32 %91, 0
  br i1 %92, label %93, label %121

93:                                               ; preds = %89
  %94 = load ptr, ptr %5, align 8, !tbaa !21
  %95 = getelementptr inbounds [5 x i8], ptr %9, i64 0, i64 0
  %96 = call i32 @SSL_read_ex(ptr noundef %94, ptr noundef %95, i64 noundef 5, ptr noundef %11)
  %97 = icmp ne i32 %96, 0
  %98 = zext i1 %97 to i32
  %99 = call i32 @test_true(ptr noundef @.str.14, i32 noundef 8112, ptr noundef @.str.442, i32 noundef %98)
  %100 = icmp ne i32 %99, 0
  br i1 %100, label %101, label %121

101:                                              ; preds = %93
  %102 = load i64, ptr %11, align 8, !tbaa !17
  %103 = call i32 @test_size_t_eq(ptr noundef @.str.14, i32 noundef 8113, ptr noundef @.str.429, ptr noundef @.str.273, i64 noundef %102, i64 noundef 5)
  %104 = icmp ne i32 %103, 0
  br i1 %104, label %105, label %121

105:                                              ; preds = %101
  %106 = load ptr, ptr %5, align 8, !tbaa !21
  %107 = call i32 @SSL_pending(ptr noundef %106)
  %108 = load i64, ptr %10, align 8, !tbaa !17
  %109 = load i64, ptr %11, align 8, !tbaa !17
  %110 = sub i64 %108, %109
  %111 = trunc i64 %110 to i32
  %112 = call i32 @test_int_eq(ptr noundef @.str.14, i32 noundef 8114, ptr noundef @.str.845, ptr noundef @.str.851, i32 noundef %107, i32 noundef %111)
  %113 = icmp ne i32 %112, 0
  br i1 %113, label %114, label %121

114:                                              ; preds = %105
  %115 = load ptr, ptr %5, align 8, !tbaa !21
  %116 = call i32 @SSL_has_pending(ptr noundef %115)
  %117 = icmp ne i32 %116, 0
  %118 = zext i1 %117 to i32
  %119 = call i32 @test_true(ptr noundef @.str.14, i32 noundef 8115, ptr noundef @.str.846, i32 noundef %118)
  %120 = icmp ne i32 %119, 0
  br i1 %120, label %122, label %121

121:                                              ; preds = %114, %105, %101, %93, %89, %81, %74, %69, %62, %57
  br label %123

122:                                              ; preds = %114
  store i32 1, ptr %7, align 4, !tbaa !13
  br label %123

123:                                              ; preds = %122, %121, %56, %38, %25
  %124 = load ptr, ptr %6, align 8, !tbaa !21
  call void @SSL_free(ptr noundef %124)
  %125 = load ptr, ptr %5, align 8, !tbaa !21
  call void @SSL_free(ptr noundef %125)
  %126 = load ptr, ptr %4, align 8, !tbaa !19
  call void @SSL_CTX_free(ptr noundef %126)
  %127 = load ptr, ptr %3, align 8, !tbaa !19
  call void @SSL_CTX_free(ptr noundef %127)
  %128 = load i32, ptr %7, align 4, !tbaa !13
  call void @llvm.lifetime.end.p0(i64 8, ptr %11) #9
  call void @llvm.lifetime.end.p0(i64 8, ptr %10) #9
  call void @llvm.lifetime.end.p0(i64 5, ptr %9) #9
  call void @llvm.lifetime.end.p0(i64 15, ptr %8) #9
  call void @llvm.lifetime.end.p0(i64 4, ptr %7) #9
  call void @llvm.lifetime.end.p0(i64 8, ptr %6) #9
  call void @llvm.lifetime.end.p0(i64 8, ptr %5) #9
  call void @llvm.lifetime.end.p0(i64 8, ptr %4) #9
  call void @llvm.lifetime.end.p0(i64 8, ptr %3) #9
  ret i32 %128
}