; Function Attrs: nounwind uwtable
define internal range(i32 0, 2) i32 @test_ssl_pending(i32 noundef %0) #1 {
  %2 = alloca ptr, align 8
  %3 = alloca ptr, align 8
  %4 = alloca ptr, align 8
  %5 = alloca ptr, align 8
  %6 = alloca [15 x i8], align 1
  %7 = alloca [5 x i8], align 1
  %8 = alloca i64, align 8
  %9 = alloca i64, align 8
  call void @llvm.lifetime.start.p0(i64 8, ptr nonnull %2) #24
  store ptr null, ptr %2, align 8, !tbaa !19
  call void @llvm.lifetime.start.p0(i64 8, ptr nonnull %3) #24
  store ptr null, ptr %3, align 8, !tbaa !19
  call void @llvm.lifetime.start.p0(i64 8, ptr nonnull %4) #24
  store ptr null, ptr %4, align 8, !tbaa !21
  call void @llvm.lifetime.start.p0(i64 8, ptr nonnull %5) #24
  store ptr null, ptr %5, align 8, !tbaa !21
  call void @llvm.lifetime.start.p0(i64 15, ptr nonnull %6) #24
  call void @llvm.memcpy.p0.p0.i64(ptr noundef nonnull align 1 dereferenceable(15) %6, ptr noundef nonnull align 1 dereferenceable(15) @__const.test_shutdown.msg, i64 15, i1 false)
  call void @llvm.lifetime.start.p0(i64 5, ptr nonnull %7) #24
  call void @llvm.lifetime.start.p0(i64 8, ptr nonnull %8) #24
  call void @llvm.lifetime.start.p0(i64 8, ptr nonnull %9) #24
  %10 = icmp eq i32 %0, 0
  %11 = load ptr, ptr @libctx, align 8, !tbaa !4
  br i1 %10, label %12, label %21

12:                                               ; preds = %1
  %13 = tail call ptr @TLS_server_method() #24
  %14 = tail call ptr @TLS_client_method() #24
  %15 = load ptr, ptr @cert, align 8, !tbaa !11
  %16 = load ptr, ptr @privkey, align 8, !tbaa !11
  %17 = call i32 @create_ssl_ctx_pair(ptr noundef %11, ptr noundef %13, ptr noundef %14, i32 noundef 769, i32 noundef 0, ptr noundef nonnull %3, ptr noundef nonnull %2, ptr noundef %15, ptr noundef %16) #24
  %18 = icmp ne i32 %17, 0
  %19 = zext i1 %18 to i32
  %20 = call i32 @test_true(ptr noundef nonnull @.str.14, i32 noundef 8070, ptr noundef nonnull @.str.210, i32 noundef %19) #24
  %.not2 = icmp eq i32 %20, 0
  br i1 %.not2, label %96, label %30

21:                                               ; preds = %1
  %22 = tail call ptr @DTLS_server_method() #24
  %23 = tail call ptr @DTLS_client_method() #24
  %24 = load ptr, ptr @cert, align 8, !tbaa !11
  %25 = load ptr, ptr @privkey, align 8, !tbaa !11
  %26 = call i32 @create_ssl_ctx_pair(ptr noundef %11, ptr noundef %22, ptr noundef %23, i32 noundef 65279, i32 noundef 0, ptr noundef nonnull %3, ptr noundef nonnull %2, ptr noundef %24, ptr noundef %25) #24
  %27 = icmp ne i32 %26, 0
  %28 = zext i1 %27 to i32
  %29 = call i32 @test_true(ptr noundef nonnull @.str.14, i32 noundef 8077, ptr noundef nonnull @.str.844, i32 noundef %28) #24
  %.not = icmp eq i32 %29, 0
  br i1 %.not, label %96, label %30

30:                                               ; preds = %21, %12
  %31 = load ptr, ptr %3, align 8, !tbaa !19
  %32 = load ptr, ptr %2, align 8, !tbaa !19
  %33 = call i32 @create_ssl_objects(ptr noundef %31, ptr noundef %32, ptr noundef nonnull %5, ptr noundef nonnull %4, ptr noundef null, ptr noundef null) #24
  %34 = icmp ne i32 %33, 0
  %35 = zext i1 %34 to i32
  %36 = call i32 @test_true(ptr noundef nonnull @.str.14, i32 noundef 8101, ptr noundef nonnull @.str.157, i32 noundef %35) #24
  %.not3 = icmp eq i32 %36, 0
  br i1 %.not3, label %96, label %37

37:                                               ; preds = %30
  %38 = load ptr, ptr %5, align 8, !tbaa !21
  %39 = load ptr, ptr %4, align 8, !tbaa !21
  %40 = call i32 @create_ssl_connection(ptr noundef %38, ptr noundef %39, i32 noundef 0) #24
  %41 = icmp ne i32 %40, 0
  %42 = zext i1 %41 to i32
  %43 = call i32 @test_true(ptr noundef nonnull @.str.14, i32 noundef 8103, ptr noundef nonnull @.str.158, i32 noundef %42) #24
  %.not4 = icmp eq i32 %43, 0
  br i1 %.not4, label %96, label %44

44:                                               ; preds = %37
  %45 = load ptr, ptr %4, align 8, !tbaa !21
  %46 = call i32 @SSL_pending(ptr noundef %45) #24
  %47 = call i32 @test_int_eq(ptr noundef nonnull @.str.14, i32 noundef 8106, ptr noundef nonnull @.str.845, ptr noundef nonnull @.str.218, i32 noundef %46, i32 noundef 0) #24
  %.not5 = icmp eq i32 %47, 0
  br i1 %.not5, label %96, label %48

48:                                               ; preds = %44
  %49 = load ptr, ptr %4, align 8, !tbaa !21
  %50 = call i32 @SSL_has_pending(ptr noundef %49) #24
  %51 = icmp ne i32 %50, 0
  %52 = zext i1 %51 to i32
  %53 = call i32 @test_false(ptr noundef nonnull @.str.14, i32 noundef 8107, ptr noundef nonnull @.str.846, i32 noundef %52) #24
  %.not6 = icmp eq i32 %53, 0
  br i1 %.not6, label %96, label %54

54:                                               ; preds = %48
  %55 = load ptr, ptr %5, align 8, !tbaa !21
  %56 = call i32 @SSL_pending(ptr noundef %55) #24
  %57 = call i32 @test_int_eq(ptr noundef nonnull @.str.14, i32 noundef 8108, ptr noundef nonnull @.str.847, ptr noundef nonnull @.str.218, i32 noundef %56, i32 noundef 0) #24
  %.not7 = icmp eq i32 %57, 0
  br i1 %.not7, label %96, label %58

58:                                               ; preds = %54
  %59 = load ptr, ptr %5, align 8, !tbaa !21
  %60 = call i32 @SSL_has_pending(ptr noundef %59) #24
  %61 = icmp ne i32 %60, 0
  %62 = zext i1 %61 to i32
  %63 = call i32 @test_false(ptr noundef nonnull @.str.14, i32 noundef 8109, ptr noundef nonnull @.str.848, i32 noundef %62) #24
  %.not8 = icmp eq i32 %63, 0
  br i1 %.not8, label %96, label %64

64:                                               ; preds = %58
  %65 = load ptr, ptr %5, align 8, !tbaa !21
  %66 = call i32 @SSL_write_ex(ptr noundef %65, ptr noundef nonnull %6, i64 noundef 15, ptr noundef nonnull %8) #24
  %67 = icmp ne i32 %66, 0
  %68 = zext i1 %67 to i32
  %69 = call i32 @test_true(ptr noundef nonnull @.str.14, i32 noundef 8110, ptr noundef nonnull @.str.849, i32 noundef %68) #24
  %.not9 = icmp eq i32 %69, 0
  br i1 %.not9, label %96, label %70

70:                                               ; preds = %64
  %71 = load i64, ptr %8, align 8, !tbaa !17
  %72 = call i32 @test_size_t_eq(ptr noundef nonnull @.str.14, i32 noundef 8111, ptr noundef nonnull @.str.174, ptr noundef nonnull @.str.850, i64 noundef %71, i64 noundef 15) #24
  %.not10 = icmp eq i32 %72, 0
  br i1 %.not10, label %96, label %73

73:                                               ; preds = %70
  %74 = load ptr, ptr %4, align 8, !tbaa !21
  %75 = call i32 @SSL_read_ex(ptr noundef %74, ptr noundef nonnull %7, i64 noundef 5, ptr noundef nonnull %9) #24
  %76 = icmp ne i32 %75, 0
  %77 = zext i1 %76 to i32
  %78 = call i32 @test_true(ptr noundef nonnull @.str.14, i32 noundef 8112, ptr noundef nonnull @.str.442, i32 noundef %77) #24
  %.not11 = icmp eq i32 %78, 0
  br i1 %.not11, label %96, label %79

79:                                               ; preds = %73
  %80 = load i64, ptr %9, align 8, !tbaa !17
  %81 = call i32 @test_size_t_eq(ptr noundef nonnull @.str.14, i32 noundef 8113, ptr noundef nonnull @.str.429, ptr noundef nonnull @.str.273, i64 noundef %80, i64 noundef 5) #24
  %.not12 = icmp eq i32 %81, 0
  br i1 %.not12, label %96, label %82

82:                                               ; preds = %79
  %83 = load ptr, ptr %4, align 8, !tbaa !21
  %84 = call i32 @SSL_pending(ptr noundef %83) #24
  %85 = load i64, ptr %8, align 8, !tbaa !17
  %86 = load i64, ptr %9, align 8, !tbaa !17
  %87 = sub i64 %85, %86
  %88 = trunc i64 %87 to i32
  %89 = call i32 @test_int_eq(ptr noundef nonnull @.str.14, i32 noundef 8114, ptr noundef nonnull @.str.845, ptr noundef nonnull @.str.851, i32 noundef %84, i32 noundef %88) #24
  %.not13 = icmp eq i32 %89, 0
  br i1 %.not13, label %96, label %90

90:                                               ; preds = %82
  %91 = load ptr, ptr %4, align 8, !tbaa !21
  %92 = call i32 @SSL_has_pending(ptr noundef %91) #24
  %93 = icmp ne i32 %92, 0
  %94 = zext i1 %93 to i32
  %95 = call i32 @test_true(ptr noundef nonnull @.str.14, i32 noundef 8115, ptr noundef nonnull @.str.846, i32 noundef %94) #24
  %.not14 = icmp ne i32 %95, 0
  %spec.select = zext i1 %.not14 to i32
  br label %96

96:                                               ; preds = %90, %44, %48, %54, %58, %64, %70, %73, %79, %82, %30, %37, %21, %12
  %.0 = phi i32 [ 0, %82 ], [ 0, %79 ], [ 0, %73 ], [ 0, %70 ], [ 0, %64 ], [ 0, %58 ], [ 0, %54 ], [ 0, %48 ], [ 0, %44 ], [ 0, %37 ], [ 0, %30 ], [ 0, %12 ], [ 0, %21 ], [ %spec.select, %90 ]
  %97 = load ptr, ptr %5, align 8, !tbaa !21
  call void @SSL_free(ptr noundef %97) #24
  %98 = load ptr, ptr %4, align 8, !tbaa !21
  call void @SSL_free(ptr noundef %98) #24
  %99 = load ptr, ptr %3, align 8, !tbaa !19
  call void @SSL_CTX_free(ptr noundef %99) #24
  %100 = load ptr, ptr %2, align 8, !tbaa !19
  call void @SSL_CTX_free(ptr noundef %100) #24
  call void @llvm.lifetime.end.p0(i64 8, ptr nonnull %9) #24
  call void @llvm.lifetime.end.p0(i64 8, ptr nonnull %8) #24
  call void @llvm.lifetime.end.p0(i64 5, ptr nonnull %7) #24
  call void @llvm.lifetime.end.p0(i64 15, ptr nonnull %6) #24
  call void @llvm.lifetime.end.p0(i64 8, ptr nonnull %5) #24
  call void @llvm.lifetime.end.p0(i64 8, ptr nonnull %4) #24
  call void @llvm.lifetime.end.p0(i64 8, ptr nonnull %3) #24
  call void @llvm.lifetime.end.p0(i64 8, ptr nonnull %2) #24
  ret i32 %.0
}